target datalayout = "e-m:e-p270:32:32-p271:32:32-p272:64:64-i64:64-i128:128-f80:128-n8:16:32:64-S128"
target triple = "x86_64-pc-linux-gnu"

@zend_known_strings = external global ptr, align 8

; Function Attrs: nounwind uwtable
define internal void @get_filename_lineno(i32 noundef %0, ptr noundef %1, ptr noundef %2) #0 {
  %4 = alloca i32, align 4
  %5 = alloca ptr, align 8
  %6 = alloca ptr, align 8
  store i32 %0, ptr %4, align 4
  store ptr %1, ptr %5, align 8
  store ptr %2, ptr %6, align 8
  %7 = load i32, ptr %4, align 4
  switch i32 %7, label %30 [
    i32 16, label %8
    i32 32, label %8
    i32 4, label %11
    i32 64, label %11
    i32 128, label %11
    i32 1, label %11
    i32 8, label %11
    i32 2048, label %11
    i32 8192, label %11
    i32 2, label %11
    i32 256, label %11
    i32 512, label %11
    i32 1024, label %11
    i32 16384, label %11
    i32 4096, label %11
  ]

8:                                                ; preds = %3, %3
  %9 = load ptr, ptr %5, align 8
  store ptr null, ptr %9, align 8
  %10 = load ptr, ptr %6, align 8
  store i32 0, ptr %10, align 4
  br label %33

11:                                               ; preds = %3, %3, %3, %3, %3, %3, %3, %3, %3, %3, %3, %3, %3
  %12 = call zeroext i1 @zend_is_compiling()
  br i1 %12, label %13, label %18

13:                                               ; preds = %11
  %14 = call ptr @zend_get_compiled_filename()
  %15 = load ptr, ptr %5, align 8
  store ptr %14, ptr %15, align 8
  %16 = call i32 @zend_get_compiled_lineno()
  %17 = load ptr, ptr %6, align 8
  store i32 %16, ptr %17, align 4
  br label %29

18:                                               ; preds = %11
  %19 = call zeroext i1 @zend_is_executing()
  br i1 %19, label %20, label %25

20:                                               ; preds = %18
  %21 = call ptr @zend_get_executed_filename_ex()
  %22 = load ptr, ptr %5, align 8
  store ptr %21, ptr %22, align 8
  %23 = call i32 @zend_get_executed_lineno()
  %24 = load ptr, ptr %6, align 8
  store i32 %23, ptr %24, align 4
  br label %28

25:                                               ; preds = %18
  %26 = load ptr, ptr %5, align 8
  store ptr null, ptr %26, align 8
  %27 = load ptr, ptr %6, align 8
  store i32 0, ptr %27, align 4
  br label %28

28:                                               ; preds = %25, %20
  br label %29

29:                                               ; preds = %28, %13
  br label %33

30:                                               ; preds = %3
  %31 = load ptr, ptr %5, align 8
  store ptr null, ptr %31, align 8
  %32 = load ptr, ptr %6, align 8
  store i32 0, ptr %32, align 4
  br label %33

33:                                               ; preds = %30, %29, %8
  %34 = load ptr, ptr %5, align 8
  %35 = load ptr, ptr %34, align 8
  %36 = icmp ne ptr %35, null
  br i1 %36, label %42, label %37

37:                                               ; preds = %33
  %38 = load ptr, ptr @zend_known_strings, align 8
  %39 = getelementptr inbounds ptr, ptr %38, i64 10
  %40 = load ptr, ptr %39, align 8
  %41 = load ptr, ptr %5, align 8
  store ptr %40, ptr %41, align 8
  br label %42

42:                                               ; preds = %37, %33
  ret void
}