; Function Attrs: nounwind uwtable
define internal fastcc void @get_filename_lineno(i32 noundef %0, ptr nocapture noundef %1, ptr nocapture noundef writeonly %2) unnamed_addr #0 {
  switch i32 %0, label %16 [
    i32 16, label %4
    i32 32, label %4
    i32 4, label %5
    i32 64, label %5
    i32 128, label %5
    i32 1, label %5
    i32 8, label %5
    i32 2048, label %5
    i32 8192, label %5
    i32 2, label %5
    i32 256, label %5
    i32 512, label %5
    i32 1024, label %5
    i32 16384, label %5
    i32 4096, label %5
  ]

4:                                                ; preds = %3, %3
  store ptr null, ptr %1, align 8
  br label %17

5:                                                ; preds = %3, %3, %3, %3, %3, %3, %3, %3, %3, %3, %3, %3, %3
  %6 = tail call zeroext i1 @zend_is_compiling() #30
  br i1 %6, label %7, label %10

7:                                                ; preds = %5
  %8 = tail call ptr @zend_get_compiled_filename() #30
  store ptr %8, ptr %1, align 8
  %9 = tail call i32 @zend_get_compiled_lineno() #30
  br label %17

10:                                               ; preds = %5
  %11 = tail call zeroext i1 @zend_is_executing() #30
  br i1 %11, label %12, label %15

12:                                               ; preds = %10
  %13 = tail call ptr @zend_get_executed_filename_ex() #30
  store ptr %13, ptr %1, align 8
  %14 = tail call i32 @zend_get_executed_lineno() #30
  br label %17

15:                                               ; preds = %10
  store ptr null, ptr %1, align 8
  br label %17

16:                                               ; preds = %3
  store ptr null, ptr %1, align 8
  br label %17

17:                                               ; preds = %7, %15, %12, %16, %4
  %.sink = phi i32 [ %9, %7 ], [ 0, %15 ], [ %14, %12 ], [ 0, %16 ], [ 0, %4 ]
  store i32 %.sink, ptr %2, align 4
  %18 = load ptr, ptr %1, align 8
  %.not = icmp eq ptr %18, null
  br i1 %.not, label %19, label %23

19:                                               ; preds = %17
  %20 = load ptr, ptr @zend_known_strings, align 8
  %21 = getelementptr inbounds i8, ptr %20, i64 80
  %22 = load ptr, ptr %21, align 8
  store ptr %22, ptr %1, align 8
  br label %23

23:                                               ; preds = %19, %17
  ret void
}